target datalayout = "e-m:e-p270:32:32-p271:32:32-p272:64:64-i64:64-i128:128-f80:128-n8:16:32:64-S128"
target triple = "x86_64-pc-linux-gnu"

%struct.IDAMemRec = type { ptr, double, ptr, ptr, i32, double, double, ptr, i32, i32, ptr, ptr, i32, i32, i32, ptr, ptr, i32, i32, double, double, ptr, i32, i32, i32, i32, ptr, ptr, i32, ptr, ptr, ptr, i32, double, i32, i32, double, ptr, ptr, ptr, i32, ptr, ptr, i32, i32, i32, double, ptr, ptr, ptr, [6 x ptr], [6 x double], [6 x double], [6 x double], [6 x double], [6 x double], ptr, ptr, ptr, ptr, ptr, ptr, ptr, ptr, ptr, ptr, ptr, ptr, ptr, ptr, ptr, ptr, ptr, [6 x ptr], ptr, ptr, ptr, ptr, [6 x ptr], ptr, ptr, ptr, ptr, ptr, ptr, ptr, ptr, ptr, ptr, ptr, ptr, ptr, ptr, ptr, ptr, [6 x ptr], ptr, ptr, ptr, ptr, ptr, double, ptr, ptr, i32, i32, i32, i32, i32, i32, i32, i32, double, double, double, i32, double, i32, i32, i32, i32, i32, double, double, double, double, double, double, double, double, double, double, double, double, double, double, double, double, double, i32, i32, i32, i32, i64, double, double, double, double, double, double, double, double, double, i64, i64, i64, i64, i64, i64, i64, i64, i64, i64, i64, i64, i64, i64, i64, i64, i64, i64, i64, i64, i64, i64, i64, i64, i64, i64, double, i32, i32, i32, i32, i32, i32, i32, i32, i32, i32, i32, i32, i32, ptr, i32, ptr, i32, ptr, i32, ptr, ptr, ptr, ptr, ptr, ptr, i32, i32, ptr, ptr, ptr, ptr, ptr, ptr, ptr, double, i32, i32, ptr, i32, ptr, ptr, double, double, double, ptr, ptr, ptr, double, double, i32, i32, i64, ptr, i32, ptr, [5 x double], ptr, ptr, i32, ptr, i32 }
%struct.IDAadjMemRec = type { double, double, i32, i32, double, i32, double, ptr, i32, ptr, i32, ptr, ptr, i32, i64, i64, ptr, i64, i32, ptr, ptr, ptr, ptr, i32, i32, i32, i32, i32, [6 x ptr], [6 x ptr], [6 x double], ptr, ptr, ptr, ptr }
%struct.IDAdtpntMemRec = type { double, ptr }

@__func__.IDAAdjInit = private unnamed_addr constant [11 x i8] c"IDAAdjInit\00", align 1
@.str = private unnamed_addr constant [111 x i8] c"generated/home/dtcxzyw/WorkSpace/Projects/compilers/llvm-opt-benchmark/bench/sundials/sundials/src/idas/idaa.c\00", align 1
@.str.1 = private unnamed_addr constant [24 x i8] c"ida_mem = NULL illegal.\00", align 1
@.str.2 = private unnamed_addr constant [27 x i8] c"Steps nonpositive illegal.\00", align 1
@.str.3 = private unnamed_addr constant [26 x i8] c"Illegal value for interp.\00", align 1
@.str.4 = private unnamed_addr constant [25 x i8] c"A memory request failed.\00", align 1

; Function Attrs: nounwind uwtable
define internal i32 @IDAAdataMalloc(ptr noundef %0) #0 {
  %2 = alloca i32, align 4
  %3 = alloca ptr, align 8
  %4 = alloca ptr, align 8
  %5 = alloca ptr, align 8
  %6 = alloca i64, align 8
  %7 = alloca i64, align 8
  %8 = alloca i32, align 4
  store ptr %0, ptr %3, align 8, !tbaa !11
  call void @llvm.lifetime.start.p0(i64 8, ptr %4) #6
  call void @llvm.lifetime.start.p0(i64 8, ptr %5) #6
  call void @llvm.lifetime.start.p0(i64 8, ptr %6) #6
  call void @llvm.lifetime.start.p0(i64 8, ptr %7) #6
  %9 = load ptr, ptr %3, align 8, !tbaa !11
  %10 = getelementptr inbounds nuw %struct.IDAMemRec, ptr %9, i32 0, i32 239
  %11 = load ptr, ptr %10, align 8, !tbaa !15
  store ptr %11, ptr %4, align 8, !tbaa !13
  %12 = load ptr, ptr %4, align 8, !tbaa !13
  %13 = getelementptr inbounds nuw %struct.IDAadjMemRec, ptr %12, i32 0, i32 16
  store ptr null, ptr %13, align 8, !tbaa !51
  %14 = load ptr, ptr %4, align 8, !tbaa !13
  %15 = getelementptr inbounds nuw %struct.IDAadjMemRec, ptr %14, i32 0, i32 14
  %16 = load i64, ptr %15, align 8, !tbaa !32
  %17 = add nsw i64 %16, 1
  %18 = mul i64 %17, 8
  %19 = call noalias ptr @malloc(i64 noundef %18) #7
  store ptr %19, ptr %5, align 8, !tbaa !52
  %20 = load ptr, ptr %5, align 8, !tbaa !52
  %21 = icmp eq ptr %20, null
  br i1 %21, label %22, label %23

22:                                               ; preds = %1
  store i32 0, ptr %2, align 4
  store i32 1, ptr %8, align 4
  br label %68

23:                                               ; preds = %1
  store i64 0, ptr %6, align 8, !tbaa !7
  br label %24

24:                                               ; preds = %61, %23
  %25 = load i64, ptr %6, align 8, !tbaa !7
  %26 = load ptr, ptr %4, align 8, !tbaa !13
  %27 = getelementptr inbounds nuw %struct.IDAadjMemRec, ptr %26, i32 0, i32 14
  %28 = load i64, ptr %27, align 8, !tbaa !32
  %29 = icmp sle i64 %25, %28
  br i1 %29, label %30, label %64

30:                                               ; preds = %24
  %31 = call noalias ptr @malloc(i64 noundef 16) #7
  %32 = load ptr, ptr %5, align 8, !tbaa !52
  %33 = load i64, ptr %6, align 8, !tbaa !7
  %34 = getelementptr inbounds ptr, ptr %32, i64 %33
  store ptr %31, ptr %34, align 8, !tbaa !53
  %35 = load ptr, ptr %5, align 8, !tbaa !52
  %36 = load i64, ptr %6, align 8, !tbaa !7
  %37 = getelementptr inbounds ptr, ptr %35, i64 %36
  %38 = load ptr, ptr %37, align 8, !tbaa !53
  %39 = icmp eq ptr %38, null
  br i1 %39, label %40, label %55

40:                                               ; preds = %30
  store i64 0, ptr %7, align 8, !tbaa !7
  br label %41

41:                                               ; preds = %50, %40
  %42 = load i64, ptr %7, align 8, !tbaa !7
  %43 = load i64, ptr %6, align 8, !tbaa !7
  %44 = icmp slt i64 %42, %43
  br i1 %44, label %45, label %53

45:                                               ; preds = %41
  %46 = load ptr, ptr %5, align 8, !tbaa !52
  %47 = load i64, ptr %7, align 8, !tbaa !7
  %48 = getelementptr inbounds ptr, ptr %46, i64 %47
  %49 = load ptr, ptr %48, align 8, !tbaa !53
  call void @free(ptr noundef %49) #6
  br label %50

50:                                               ; preds = %45
  %51 = load i64, ptr %7, align 8, !tbaa !7
  %52 = add nsw i64 %51, 1
  store i64 %52, ptr %7, align 8, !tbaa !7
  br label %41

53:                                               ; preds = %41
  %54 = load ptr, ptr %5, align 8, !tbaa !52
  call void @free(ptr noundef %54) #6
  store i32 0, ptr %2, align 4
  store i32 1, ptr %8, align 4
  br label %68

55:                                               ; preds = %30
  %56 = load ptr, ptr %5, align 8, !tbaa !52
  %57 = load i64, ptr %6, align 8, !tbaa !7
  %58 = getelementptr inbounds ptr, ptr %56, i64 %57
  %59 = load ptr, ptr %58, align 8, !tbaa !53
  %60 = getelementptr inbounds nuw %struct.IDAdtpntMemRec, ptr %59, i32 0, i32 1
  store ptr null, ptr %60, align 8, !tbaa !55
  br label %61

61:                                               ; preds = %55
  %62 = load i64, ptr %6, align 8, !tbaa !7
  %63 = add nsw i64 %62, 1
  store i64 %63, ptr %6, align 8, !tbaa !7
  br label %24

64:                                               ; preds = %24
  %65 = load ptr, ptr %5, align 8, !tbaa !52
  %66 = load ptr, ptr %4, align 8, !tbaa !13
  %67 = getelementptr inbounds nuw %struct.IDAadjMemRec, ptr %66, i32 0, i32 16
  store ptr %65, ptr %67, align 8, !tbaa !51
  store i32 1, ptr %2, align 4
  store i32 1, ptr %8, align 4
  br label %68

68:                                               ; preds = %64, %53, %22
  call void @llvm.lifetime.end.p0(i64 8, ptr %7) #6
  call void @llvm.lifetime.end.p0(i64 8, ptr %6) #6
  call void @llvm.lifetime.end.p0(i64 8, ptr %5) #6
  call void @llvm.lifetime.end.p0(i64 8, ptr %4) #6
  %69 = load i32, ptr %2, align 4
  ret i32 %69
}

; Function Attrs: nounwind uwtable
define i32 @IDAAdjInit(ptr noundef %0, i64 noundef %1, i32 noundef %2) #0 {
  %4 = alloca i32, align 4
  %5 = alloca ptr, align 8
  %6 = alloca i64, align 8
  %7 = alloca i32, align 4
  %8 = alloca ptr, align 8
  %9 = alloca ptr, align 8
  %10 = alloca i32, align 4
  store ptr %0, ptr %5, align 8, !tbaa !3
  store i64 %1, ptr %6, align 8, !tbaa !7
  store i32 %2, ptr %7, align 4, !tbaa !9
  call void @llvm.lifetime.start.p0(i64 8, ptr %8) #6
  call void @llvm.lifetime.start.p0(i64 8, ptr %9) #6
  %11 = load ptr, ptr %5, align 8, !tbaa !3
  %12 = icmp eq ptr %11, null
  br i1 %12, label %13, label %14

13:                                               ; preds = %3
  call void (ptr, i32, i32, ptr, ptr, ptr, ...) @IDAProcessError(ptr noundef null, i32 noundef -20, i32 noundef 110, ptr noundef @__func__.IDAAdjInit, ptr noundef @.str, ptr noundef @.str.1)
  store i32 -20, ptr %4, align 4
  store i32 1, ptr %10, align 4
  br label %105

14:                                               ; preds = %3
  %15 = load ptr, ptr %5, align 8, !tbaa !3
  store ptr %15, ptr %9, align 8, !tbaa !11
  %16 = load i64, ptr %6, align 8, !tbaa !7
  %17 = icmp sle i64 %16, 0
  br i1 %17, label %18, label %20

18:                                               ; preds = %14
  %19 = load ptr, ptr %9, align 8, !tbaa !11
  call void (ptr, i32, i32, ptr, ptr, ptr, ...) @IDAProcessError(ptr noundef %19, i32 noundef -22, i32 noundef 120, ptr noundef @__func__.IDAAdjInit, ptr noundef @.str, ptr noundef @.str.2)
  store i32 -22, ptr %4, align 4
  store i32 1, ptr %10, align 4
  br label %105

20:                                               ; preds = %14
  %21 = load i32, ptr %7, align 4, !tbaa !9
  %22 = icmp ne i32 %21, 1
  br i1 %22, label %23, label %28

23:                                               ; preds = %20
  %24 = load i32, ptr %7, align 4, !tbaa !9
  %25 = icmp ne i32 %24, 2
  br i1 %25, label %26, label %28

26:                                               ; preds = %23
  %27 = load ptr, ptr %9, align 8, !tbaa !11
  call void (ptr, i32, i32, ptr, ptr, ptr, ...) @IDAProcessError(ptr noundef %27, i32 noundef -22, i32 noundef 128, ptr noundef @__func__.IDAAdjInit, ptr noundef @.str, ptr noundef @.str.3)
  store i32 -22, ptr %4, align 4
  store i32 1, ptr %10, align 4
  br label %105

28:                                               ; preds = %23, %20
  %29 = call noalias ptr @malloc(i64 noundef 376) #7
  store ptr %29, ptr %8, align 8, !tbaa !13
  %30 = load ptr, ptr %8, align 8, !tbaa !13
  %31 = icmp eq ptr %30, null
  br i1 %31, label %32, label %34

32:                                               ; preds = %28
  %33 = load ptr, ptr %9, align 8, !tbaa !11
  call void (ptr, i32, i32, ptr, ptr, ptr, ...) @IDAProcessError(ptr noundef %33, i32 noundef -21, i32 noundef 138, ptr noundef @__func__.IDAAdjInit, ptr noundef @.str, ptr noundef @.str.4)
  store i32 -21, ptr %4, align 4
  store i32 1, ptr %10, align 4
  br label %105

34:                                               ; preds = %28
  %35 = load ptr, ptr %8, align 8, !tbaa !13
  %36 = load ptr, ptr %9, align 8, !tbaa !11
  %37 = getelementptr inbounds nuw %struct.IDAMemRec, ptr %36, i32 0, i32 239
  store ptr %35, ptr %37, align 8, !tbaa !15
  %38 = load ptr, ptr %8, align 8, !tbaa !13
  %39 = getelementptr inbounds nuw %struct.IDAadjMemRec, ptr %38, i32 0, i32 11
  store ptr null, ptr %39, align 8, !tbaa !24
  %40 = load ptr, ptr %8, align 8, !tbaa !13
  %41 = getelementptr inbounds nuw %struct.IDAadjMemRec, ptr %40, i32 0, i32 13
  store i32 0, ptr %41, align 8, !tbaa !29
  %42 = load ptr, ptr %8, align 8, !tbaa !13
  %43 = getelementptr inbounds nuw %struct.IDAadjMemRec, ptr %42, i32 0, i32 12
  store ptr null, ptr %43, align 8, !tbaa !30
  %44 = load i32, ptr %7, align 4, !tbaa !9
  %45 = load ptr, ptr %8, align 8, !tbaa !13
  %46 = getelementptr inbounds nuw %struct.IDAadjMemRec, ptr %45, i32 0, i32 18
  store i32 %44, ptr %46, align 8, !tbaa !31
  %47 = load i64, ptr %6, align 8, !tbaa !7
  %48 = load ptr, ptr %8, align 8, !tbaa !13
  %49 = getelementptr inbounds nuw %struct.IDAadjMemRec, ptr %48, i32 0, i32 14
  store i64 %47, ptr %49, align 8, !tbaa !32
  %50 = load ptr, ptr %8, align 8, !tbaa !13
  %51 = getelementptr inbounds nuw %struct.IDAadjMemRec, ptr %50, i32 0, i32 15
  store i64 -1, ptr %51, align 8, !tbaa !33
  %52 = load ptr, ptr %9, align 8, !tbaa !11
  %53 = call i32 @IDAAdataMalloc(ptr noundef %52)
  %54 = icmp eq i32 %53, 0
  br i1 %54, label %55, label %58

55:                                               ; preds = %34
  %56 = load ptr, ptr %8, align 8, !tbaa !13
  call void @free(ptr noundef %56) #6
  store ptr null, ptr %8, align 8, !tbaa !13
  %57 = load ptr, ptr %9, align 8, !tbaa !11
  call void (ptr, i32, i32, ptr, ptr, ptr, ...) @IDAProcessError(ptr noundef %57, i32 noundef -21, i32 noundef 164, ptr noundef @__func__.IDAAdjInit, ptr noundef @.str, ptr noundef @.str.4)
  store i32 -21, ptr %4, align 4
  store i32 1, ptr %10, align 4
  br label %105

58:                                               ; preds = %34
  %59 = load i32, ptr %7, align 4, !tbaa !9
  switch i32 %59, label %78 [
    i32 1, label %60
    i32 2, label %69
  ]

60:                                               ; preds = %58
  %61 = load ptr, ptr %8, align 8, !tbaa !13
  %62 = getelementptr inbounds nuw %struct.IDAadjMemRec, ptr %61, i32 0, i32 21
  store ptr @IDAAhermiteMalloc, ptr %62, align 8, !tbaa !34
  %63 = load ptr, ptr %8, align 8, !tbaa !13
  %64 = getelementptr inbounds nuw %struct.IDAadjMemRec, ptr %63, i32 0, i32 22
  store ptr @IDAAhermiteFree, ptr %64, align 8, !tbaa !35
  %65 = load ptr, ptr %8, align 8, !tbaa !13
  %66 = getelementptr inbounds nuw %struct.IDAadjMemRec, ptr %65, i32 0, i32 20
  store ptr @IDAAhermiteGetY, ptr %66, align 8, !tbaa !36
  %67 = load ptr, ptr %8, align 8, !tbaa !13
  %68 = getelementptr inbounds nuw %struct.IDAadjMemRec, ptr %67, i32 0, i32 19
  store ptr @IDAAhermiteStorePnt, ptr %68, align 8, !tbaa !37
  br label %78

69:                                               ; preds = %58
  %70 = load ptr, ptr %8, align 8, !tbaa !13
  %71 = getelementptr inbounds nuw %struct.IDAadjMemRec, ptr %70, i32 0, i32 21
  store ptr @IDAApolynomialMalloc, ptr %71, align 8, !tbaa !34
  %72 = load ptr, ptr %8, align 8, !tbaa !13
  %73 = getelementptr inbounds nuw %struct.IDAadjMemRec, ptr %72, i32 0, i32 22
  store ptr @IDAApolynomialFree, ptr %73, align 8, !tbaa !35
  %74 = load ptr, ptr %8, align 8, !tbaa !13
  %75 = getelementptr inbounds nuw %struct.IDAadjMemRec, ptr %74, i32 0, i32 20
  store ptr @IDAApolynomialGetY, ptr %75, align 8, !tbaa !36
  %76 = load ptr, ptr %8, align 8, !tbaa !13
  %77 = getelementptr inbounds nuw %struct.IDAadjMemRec, ptr %76, i32 0, i32 19
  store ptr @IDAApolynomialStorePnt, ptr %77, align 8, !tbaa !37
  br label %78

78:                                               ; preds = %58, %69, %60
  %79 = load ptr, ptr %8, align 8, !tbaa !13
  %80 = getelementptr inbounds nuw %struct.IDAadjMemRec, ptr %79, i32 0, i32 23
  store i32 0, ptr %80, align 8, !tbaa !38
  %81 = load ptr, ptr %8, align 8, !tbaa !13
  %82 = getelementptr inbounds nuw %struct.IDAadjMemRec, ptr %81, i32 0, i32 25
  store i32 1, ptr %82, align 8, !tbaa !39
  %83 = load ptr, ptr %8, align 8, !tbaa !13
  %84 = getelementptr inbounds nuw %struct.IDAadjMemRec, ptr %83, i32 0, i32 26
  store i32 0, ptr %84, align 4, !tbaa !40
  %85 = load ptr, ptr %8, align 8, !tbaa !13
  %86 = getelementptr inbounds nuw %struct.IDAadjMemRec, ptr %85, i32 0, i32 27
  store i32 0, ptr %86, align 8, !tbaa !41
  %87 = load ptr, ptr %8, align 8, !tbaa !13
  %88 = getelementptr inbounds nuw %struct.IDAadjMemRec, ptr %87, i32 0, i32 7
  store ptr null, ptr %88, align 8, !tbaa !42
  %89 = load ptr, ptr %8, align 8, !tbaa !13
  %90 = getelementptr inbounds nuw %struct.IDAadjMemRec, ptr %89, i32 0, i32 9
  store ptr null, ptr %90, align 8, !tbaa !43
  %91 = load ptr, ptr %8, align 8, !tbaa !13
  %92 = getelementptr inbounds nuw %struct.IDAadjMemRec, ptr %91, i32 0, i32 8
  store i32 0, ptr %92, align 8, !tbaa !44
  %93 = load ptr, ptr %8, align 8, !tbaa !13
  %94 = getelementptr inbounds nuw %struct.IDAadjMemRec, ptr %93, i32 0, i32 2
  store i32 1, ptr %94, align 8, !tbaa !45
  %95 = load ptr, ptr %8, align 8, !tbaa !13
  %96 = getelementptr inbounds nuw %struct.IDAadjMemRec, ptr %95, i32 0, i32 3
  store i32 0, ptr %96, align 4, !tbaa !46
  %97 = load ptr, ptr %8, align 8, !tbaa !13
  %98 = getelementptr inbounds nuw %struct.IDAadjMemRec, ptr %97, i32 0, i32 10
  store i32 1, ptr %98, align 8, !tbaa !47
  %99 = load ptr, ptr %8, align 8, !tbaa !13
  %100 = getelementptr inbounds nuw %struct.IDAadjMemRec, ptr %99, i32 0, i32 5
  store i32 0, ptr %100, align 8, !tbaa !48
  %101 = load ptr, ptr %9, align 8, !tbaa !11
  %102 = getelementptr inbounds nuw %struct.IDAMemRec, ptr %101, i32 0, i32 238
  store i32 1, ptr %102, align 8, !tbaa !49
  %103 = load ptr, ptr %9, align 8, !tbaa !11
  %104 = getelementptr inbounds nuw %struct.IDAMemRec, ptr %103, i32 0, i32 240
  store i32 1, ptr %104, align 8, !tbaa !50
  store i32 0, ptr %4, align 4
  store i32 1, ptr %10, align 4
  br label %105

105:                                              ; preds = %78, %55, %32, %26, %18, %13
  call void @llvm.lifetime.end.p0(i64 8, ptr %9) #6
  call void @llvm.lifetime.end.p0(i64 8, ptr %8) #6
  %106 = load i32, ptr %4, align 4
  ret i32 %106
}