; Function Attrs: nounwind uwtable
define range(i32 -22, 1) i32 @IDAAdjInit(ptr noundef %0, i64 noundef %1, i32 noundef %2) local_unnamed_addr #0 {
  %4 = icmp eq ptr %0, null
  br i1 %4, label %5, label %6

5:                                                ; preds = %3
  tail call void (ptr, i32, i32, ptr, ptr, ptr, ...) @IDAProcessError(ptr noundef null, i32 noundef -20, i32 noundef 110, ptr noundef nonnull @__func__.IDAAdjInit, ptr noundef nonnull @.str, ptr noundef nonnull @.str.1) #9
  br label %57

6:                                                ; preds = %3
  %7 = icmp slt i64 %1, 1
  br i1 %7, label %8, label %9

8:                                                ; preds = %6
  tail call void (ptr, i32, i32, ptr, ptr, ptr, ...) @IDAProcessError(ptr noundef nonnull %0, i32 noundef -22, i32 noundef 120, ptr noundef nonnull @__func__.IDAAdjInit, ptr noundef nonnull @.str, ptr noundef nonnull @.str.2) #9
  br label %57

9:                                                ; preds = %6
  %10 = add i32 %2, -3
  %or.cond = icmp ult i32 %10, -2
  br i1 %or.cond, label %11, label %12

11:                                               ; preds = %9
  tail call void (ptr, i32, i32, ptr, ptr, ptr, ...) @IDAProcessError(ptr noundef nonnull %0, i32 noundef -22, i32 noundef 128, ptr noundef nonnull @__func__.IDAAdjInit, ptr noundef nonnull @.str, ptr noundef nonnull @.str.3) #9
  br label %57

12:                                               ; preds = %9
  %13 = tail call noalias dereferenceable_or_null(376) ptr @malloc(i64 noundef 376) #10
  %14 = icmp eq ptr %13, null
  br i1 %14, label %15, label %16

15:                                               ; preds = %12
  tail call void (ptr, i32, i32, ptr, ptr, ptr, ...) @IDAProcessError(ptr noundef nonnull %0, i32 noundef -21, i32 noundef 138, ptr noundef nonnull @__func__.IDAAdjInit, ptr noundef nonnull @.str, ptr noundef nonnull @.str.4) #9
  br label %57

16:                                               ; preds = %12
  %17 = getelementptr inbounds nuw i8, ptr %0, i64 2112
  store ptr %13, ptr %17, align 8, !tbaa !3
  %18 = getelementptr inbounds nuw i8, ptr %13, i64 80
  %19 = getelementptr inbounds nuw i8, ptr %13, i64 136
  tail call void @llvm.memset.p0.i64(ptr noundef nonnull align 8 dereferenceable(20) %18, i8 0, i64 20, i1 false)
  store i32 %2, ptr %19, align 8, !tbaa !18
  %20 = getelementptr inbounds nuw i8, ptr %13, i64 104
  store i64 %1, ptr %20, align 8, !tbaa !23
  %21 = getelementptr inbounds nuw i8, ptr %13, i64 112
  store i64 -1, ptr %21, align 8, !tbaa !24
  %22 = getelementptr inbounds nuw i8, ptr %13, i64 120
  store ptr null, ptr %22, align 8, !tbaa !25
  %23 = shl i64 %1, 3
  %24 = add i64 %23, 8
  %25 = tail call noalias ptr @malloc(i64 noundef %24) #10
  %26 = icmp eq ptr %25, null
  br i1 %26, label %36, label %.lr.ph.i

.lr.ph.i:                                         ; preds = %16, %33
  %.0214.i = phi i64 [ %35, %33 ], [ 0, %16 ]
  %27 = tail call noalias dereferenceable_or_null(16) ptr @malloc(i64 noundef 16) #10
  %28 = getelementptr inbounds nuw ptr, ptr %25, i64 %.0214.i
  store ptr %27, ptr %28, align 8, !tbaa !26
  %29 = icmp eq ptr %27, null
  br i1 %29, label %.preheader.i, label %33

.preheader.i:                                     ; preds = %.lr.ph.i
  %.not.i = icmp eq i64 %.0214.i, 0
  br i1 %.not.i, label %._crit_edge7.i, label %.lr.ph6.i

.lr.ph6.i:                                        ; preds = %.preheader.i, %.lr.ph6.i
  %.05.i = phi i64 [ %32, %.lr.ph6.i ], [ 0, %.preheader.i ]
  %30 = getelementptr inbounds nuw ptr, ptr %25, i64 %.05.i
  %31 = load ptr, ptr %30, align 8, !tbaa !26
  tail call void @free(ptr noundef %31) #9
  %32 = add nuw nsw i64 %.05.i, 1
  %exitcond11.not.i = icmp eq i64 %32, %.0214.i
  br i1 %exitcond11.not.i, label %._crit_edge7.i, label %.lr.ph6.i

._crit_edge7.i:                                   ; preds = %.lr.ph6.i, %.preheader.i
  tail call void @free(ptr noundef nonnull %25) #9
  br label %36

33:                                               ; preds = %.lr.ph.i
  %34 = getelementptr inbounds nuw i8, ptr %27, i64 8
  store ptr null, ptr %34, align 8, !tbaa !28
  %35 = add nuw i64 %.0214.i, 1
  %exitcond.not.i = icmp eq i64 %.0214.i, %1
  br i1 %exitcond.not.i, label %37, label %.lr.ph.i

36:                                               ; preds = %._crit_edge7.i, %16
  tail call void @free(ptr noundef %13) #9
  tail call void (ptr, i32, i32, ptr, ptr, ptr, ...) @IDAProcessError(ptr noundef nonnull %0, i32 noundef -21, i32 noundef 164, ptr noundef nonnull @__func__.IDAAdjInit, ptr noundef nonnull @.str, ptr noundef nonnull @.str.4) #9
  br label %57

37:                                               ; preds = %33
  store ptr %25, ptr %22, align 8, !tbaa !25
  switch i32 %2, label %43 [
    i32 1, label %.sink.split
    i32 2, label %38
  ]

38:                                               ; preds = %37
  br label %.sink.split

.sink.split:                                      ; preds = %37, %38
  %IDAApolynomialMalloc.sink = phi ptr [ @IDAApolynomialMalloc, %38 ], [ @IDAAhermiteMalloc, %37 ]
  %IDAApolynomialFree.sink = phi ptr [ @IDAApolynomialFree, %38 ], [ @IDAAhermiteFree, %37 ]
  %IDAApolynomialGetY.sink = phi ptr [ @IDAApolynomialGetY, %38 ], [ @IDAAhermiteGetY, %37 ]
  %IDAApolynomialStorePnt.sink = phi ptr [ @IDAApolynomialStorePnt, %38 ], [ @IDAAhermiteStorePnt, %37 ]
  %39 = getelementptr inbounds nuw i8, ptr %13, i64 160
  store ptr %IDAApolynomialMalloc.sink, ptr %39, align 8, !tbaa !30
  %40 = getelementptr inbounds nuw i8, ptr %13, i64 168
  store ptr %IDAApolynomialFree.sink, ptr %40, align 8, !tbaa !31
  %41 = getelementptr inbounds nuw i8, ptr %13, i64 152
  store ptr %IDAApolynomialGetY.sink, ptr %41, align 8, !tbaa !32
  %42 = getelementptr inbounds nuw i8, ptr %13, i64 144
  store ptr %IDAApolynomialStorePnt.sink, ptr %42, align 8, !tbaa !33
  br label %43

43:                                               ; preds = %.sink.split, %37
  %44 = getelementptr inbounds nuw i8, ptr %13, i64 176
  store i32 0, ptr %44, align 8, !tbaa !34
  %45 = getelementptr inbounds nuw i8, ptr %13, i64 184
  store i32 1, ptr %45, align 8, !tbaa !35
  %46 = getelementptr inbounds nuw i8, ptr %13, i64 188
  store i32 0, ptr %46, align 4, !tbaa !36
  %47 = getelementptr inbounds nuw i8, ptr %13, i64 192
  store i32 0, ptr %47, align 8, !tbaa !37
  %48 = getelementptr inbounds nuw i8, ptr %13, i64 48
  store ptr null, ptr %48, align 8, !tbaa !38
  %49 = getelementptr inbounds nuw i8, ptr %13, i64 64
  store ptr null, ptr %49, align 8, !tbaa !39
  %50 = getelementptr inbounds nuw i8, ptr %13, i64 56
  store i32 0, ptr %50, align 8, !tbaa !40
  %51 = getelementptr inbounds nuw i8, ptr %13, i64 16
  store i32 1, ptr %51, align 8, !tbaa !41
  %52 = getelementptr inbounds nuw i8, ptr %13, i64 20
  store i32 0, ptr %52, align 4, !tbaa !42
  %53 = getelementptr inbounds nuw i8, ptr %13, i64 72
  store i32 1, ptr %53, align 8, !tbaa !43
  %54 = getelementptr inbounds nuw i8, ptr %13, i64 32
  store i32 0, ptr %54, align 8, !tbaa !44
  %55 = getelementptr inbounds nuw i8, ptr %0, i64 2104
  store i32 1, ptr %55, align 8, !tbaa !45
  %56 = getelementptr inbounds nuw i8, ptr %0, i64 2120
  store i32 1, ptr %56, align 8, !tbaa !46
  br label %57

57:                                               ; preds = %43, %36, %15, %11, %8, %5
  %.0 = phi i32 [ -20, %5 ], [ -22, %8 ], [ -22, %11 ], [ -21, %15 ], [ -21, %36 ], [ 0, %43 ]
  ret i32 %.0
}